; ModuleID = 'source-C-CXX/26/1665.c'
source_filename = "source-C-CXX/26/1665.c"
target datalayout = "e-m:e-p270:32:32-p271:32:32-p272:64:64-i64:64-f80:128-n8:16:32:64-S128"
target triple = "x86_64-pc-linux-gnu"

@.str = private unnamed_addr constant [3 x i8] c"%d\00", align 1
@.str.1 = private unnamed_addr constant [10 x i8] c"%lf%lf%lf\00", align 1
@.str.2 = private unnamed_addr constant [19 x i8] c"x1=%.5lf;x2=%.5lf\0A\00", align 1
@.str.3 = private unnamed_addr constant [33 x i8] c"x1=%.5lf+%.5lfi;x2=%.5lf-%.5lfi\0A\00", align 1
@.str.4 = private unnamed_addr constant [13 x i8] c"x1=x2=%.5lf\0A\00", align 1

; Function Attrs: nofree nounwind sspstrong uwtable
define dso_local i32 @main(i32 %0, i8** nocapture readnone %1) local_unnamed_addr #0 {
  %3 = alloca i32, align 4
  %4 = alloca double, align 8
  %5 = alloca double, align 8
  %6 = alloca double, align 8
  %7 = bitcast i32* %3 to i8*
  call void @llvm.lifetime.start.p0i8(i64 4, i8* nonnull %7) #4
  %8 = bitcast double* %4 to i8*
  call void @llvm.lifetime.start.p0i8(i64 8, i8* nonnull %8) #4
  %9 = bitcast double* %5 to i8*
  call void @llvm.lifetime.start.p0i8(i64 8, i8* nonnull %9) #4
  %10 = bitcast double* %6 to i8*
  call void @llvm.lifetime.start.p0i8(i64 8, i8* nonnull %10) #4
  %11 = call i32 (i8*, ...) @__isoc99_scanf(i8* getelementptr inbounds ([3 x i8], [3 x i8]* @.str, i64 0, i64 0), i32* nonnull %3)
  %12 = load i32, i32* %3, align 4, !tbaa !5
  %13 = icmp sgt i32 %12, 0
  br i1 %13, label %14, label %65

14:                                               ; preds = %2, %61
  %15 = phi i32 [ %62, %61 ], [ 0, %2 ]
  %16 = call i32 (i8*, ...) @__isoc99_scanf(i8* getelementptr inbounds ([10 x i8], [10 x i8]* @.str.1, i64 0, i64 0), double* nonnull %4, double* nonnull %5, double* nonnull %6)
  %17 = load double, double* %5, align 8, !tbaa !9
  %18 = fmul double %17, %17
  %19 = load double, double* %4, align 8, !tbaa !9
  %20 = fmul double %19, 4.000000e+00
  %21 = load double, double* %6, align 8, !tbaa !9
  %22 = fmul double %20, %21
  %23 = fsub double %18, %22
  %24 = fcmp oeq double %17, 0.000000e+00
  br i1 %24, label %29, label %25

25:                                               ; preds = %14
  %26 = fneg double %17
  %27 = fmul double %19, 2.000000e+00
  %28 = fdiv double %26, %27
  br label %29

29:                                               ; preds = %14, %25
  %30 = phi double [ %28, %25 ], [ 0.000000e+00, %14 ]
  %31 = fcmp ogt double %23, 0.000000e+00
  br i1 %31, label %32, label %44

32:                                               ; preds = %29
  %33 = call double @sqrt(double %23) #4
  %34 = load double, double* %4, align 8, !tbaa !9
  %35 = fmul double %34, 2.000000e+00
  %36 = fdiv double %33, %35
  %37 = fadd double %30, %36
  %38 = call double @sqrt(double %23) #4
  %39 = load double, double* %4, align 8, !tbaa !9
  %40 = fmul double %39, 2.000000e+00
  %41 = fdiv double %38, %40
  %42 = fsub double %30, %41
  %43 = call i32 (i8*, ...) @printf(i8* nonnull dereferenceable(1) getelementptr inbounds ([19 x i8], [19 x i8]* @.str.2, i64 0, i64 0), double %37, double %42)
  br label %61

44:                                               ; preds = %29
  %45 = fcmp olt double %23, 0.000000e+00
  br i1 %45, label %46, label %57

46:                                               ; preds = %44
  %47 = fneg double %23
  %48 = call double @sqrt(double %47) #4
  %49 = load double, double* %4, align 8, !tbaa !9
  %50 = fmul double %49, 2.000000e+00
  %51 = fdiv double %48, %50
  %52 = call double @sqrt(double %47) #4
  %53 = load double, double* %4, align 8, !tbaa !9
  %54 = fmul double %53, 2.000000e+00
  %55 = fdiv double %52, %54
  %56 = call i32 (i8*, ...) @printf(i8* nonnull dereferenceable(1) getelementptr inbounds ([33 x i8], [33 x i8]* @.str.3, i64 0, i64 0), double %30, double %51, double %30, double %55)
  br label %61

57:                                               ; preds = %44
  %58 = fcmp oeq double %23, 0.000000e+00
  br i1 %58, label %59, label %61

59:                                               ; preds = %57
  %60 = call i32 (i8*, ...) @printf(i8* nonnull dereferenceable(1) getelementptr inbounds ([13 x i8], [13 x i8]* @.str.4, i64 0, i64 0), double %30)
  br label %61

61:                                               ; preds = %32, %57, %59, %46
  %62 = add nuw nsw i32 %15, 1
  %63 = load i32, i32* %3, align 4, !tbaa !5
  %64 = icmp slt i32 %62, %63
  br i1 %64, label %14, label %65, !llvm.loop !11

65:                                               ; preds = %61, %2
  call void @llvm.lifetime.end.p0i8(i64 8, i8* nonnull %10) #4
  call void @llvm.lifetime.end.p0i8(i64 8, i8* nonnull %9) #4
  call void @llvm.lifetime.end.p0i8(i64 8, i8* nonnull %8) #4
  call void @llvm.lifetime.end.p0i8(i64 4, i8* nonnull %7) #4
  ret i32 0
}

; Function Attrs: argmemonly mustprogress nofree nosync nounwind willreturn
declare void @llvm.lifetime.start.p0i8(i64 immarg, i8* nocapture) #1

; Function Attrs: nofree nounwind
declare noundef i32 @__isoc99_scanf(i8* nocapture noundef readonly, ...) local_unnamed_addr #2

; Function Attrs: nofree nounwind
declare noundef i32 @printf(i8* nocapture noundef readonly, ...) local_unnamed_addr #2

; Function Attrs: mustprogress nofree nounwind willreturn
declare double @sqrt(double) local_unnamed_addr #3

; Function Attrs: argmemonly mustprogress nofree nosync nounwind willreturn
declare void @llvm.lifetime.end.p0i8(i64 immarg, i8* nocapture) #1


!llvm.module.flags = !{!0, !1, !2, !3}
!llvm.ident = !{!4}

!0 = !{i32 1, !"wchar_size", i32 4}
!1 = !{i32 7, !"PIC Level", i32 2}
!2 = !{i32 7, !"PIE Level", i32 2}
!3 = !{i32 7, !"uwtable", i32 1}
!4 = !{!"clang version 13.0.0"}
!5 = !{!6, !6, i64 0}
!6 = !{!"int", !7, i64 0}
!7 = !{!"omnipotent char", !8, i64 0}
!8 = !{!"Simple C/C++ TBAA"}
!9 = !{!10, !10, i64 0}
!10 = !{!"double", !7, i64 0}
!11 = distinct !{!11, !12}
!12 = !{!"llvm.loop.mustprogress"}
